; Function Attrs: mustprogress nofree norecurse nosync nounwind willreturn memory(argmem: readwrite) uwtable
define void @_ZN5draco16DirectBitEncoder13StartEncodingEv(ptr noundef nonnull align 8 captures(none) dereferenceable(32) initializes((24, 32)) %0) local_unnamed_addr #5 align 2 personality ptr @__gxx_personality_v0 {
  %2 = load ptr, ptr %0, align 8, !tbaa !3
  %3 = getelementptr inbounds nuw i8, ptr %0, i64 8
  %4 = load ptr, ptr %3, align 8, !tbaa !9
  %.not.i.i.i = icmp eq ptr %4, %2
  br i1 %.not.i.i.i, label %_ZN5draco16DirectBitEncoder5ClearEv.exit, label %5

5:                                                ; preds = %1
  store ptr %2, ptr %3, align 8, !tbaa !9
  br label %_ZN5draco16DirectBitEncoder5ClearEv.exit

_ZN5draco16DirectBitEncoder5ClearEv.exit:         ; preds = %1, %5
  %6 = getelementptr inbounds nuw i8, ptr %0, i64 24
  store i32 0, ptr %6, align 8, !tbaa !10
  %7 = getelementptr inbounds nuw i8, ptr %0, i64 28
  store i32 0, ptr %7, align 4, !tbaa !16
  ret void
}